target datalayout = "e-m:e-p270:32:32-p271:32:32-p272:64:64-i64:64-i128:128-f80:128-n8:16:32:64-S128"
target triple = "x86_64-pc-linux-gnu"

%struct.PLATFORM_hid_device_ = type { i32, i32, i32, ptr, ptr }

@.str.31 = private unnamed_addr constant [3 x i8] c"%s\00", align 1

; Function Attrs: nounwind uwtable
define internal void @register_error_str(ptr noundef %0, ptr noundef %1) #0 {
  %3 = alloca ptr, align 8
  %4 = alloca ptr, align 8
  store ptr %0, ptr %3, align 8
  store ptr %1, ptr %4, align 8
  %5 = load ptr, ptr %3, align 8
  %6 = load ptr, ptr %5, align 8
  call void @free(ptr noundef %6) #10
  %7 = load ptr, ptr %4, align 8
  %8 = icmp ne ptr %7, null
  br i1 %8, label %9, label %12

9:                                                ; preds = %2
  %10 = load ptr, ptr %4, align 8
  %11 = call zeroext i1 (ptr, ...) @SDL_SetError_REAL(ptr noundef @.str.31, ptr noundef %10)
  br label %14

12:                                               ; preds = %2
  %13 = call zeroext i1 @SDL_ClearError_REAL()
  br label %14

14:                                               ; preds = %12, %9
  ret void
}

; Function Attrs: nounwind uwtable
define internal void @register_device_error(ptr noundef %0, ptr noundef %1) #0 {
  %3 = alloca ptr, align 8
  %4 = alloca ptr, align 8
  store ptr %0, ptr %3, align 8
  store ptr %1, ptr %4, align 8
  %5 = load ptr, ptr %3, align 8
  %6 = getelementptr inbounds nuw %struct.PLATFORM_hid_device_, ptr %5, i32 0, i32 3
  %7 = load ptr, ptr %4, align 8
  call void @register_error_str(ptr noundef %6, ptr noundef %7)
  ret void
}

; Function Attrs: nounwind uwtable
define hidden i32 @PLATFORM_hid_write(ptr noundef %0, ptr noundef %1, i64 noundef %2) #0 {
  %4 = alloca i32, align 4
  %5 = alloca ptr, align 8
  %6 = alloca ptr, align 8
  %7 = alloca i64, align 8
  %8 = alloca i32, align 4
  %9 = alloca i32, align 4
  store ptr %0, ptr %5, align 8
  store ptr %1, ptr %6, align 8
  store i64 %2, ptr %7, align 8
  call void @llvm.lifetime.start.p0(i64 4, ptr %8) #10
  %10 = load ptr, ptr %6, align 8
  %11 = icmp ne ptr %10, null
  br i1 %11, label %12, label %15

12:                                               ; preds = %3
  %13 = load i64, ptr %7, align 8
  %14 = icmp eq i64 %13, 0
  br i1 %14, label %15, label %21

15:                                               ; preds = %12, %3
  %16 = call ptr @__errno_location() #13
  store i32 22, ptr %16, align 4
  %17 = load ptr, ptr %5, align 8
  %18 = call ptr @__errno_location() #13
  %19 = load i32, ptr %18, align 4
  %20 = call ptr @strerror(i32 noundef %19) #10
  call void @register_device_error(ptr noundef %17, ptr noundef %20)
  store i32 -1, ptr %4, align 4
  store i32 1, ptr %9, align 4
  br label %40

21:                                               ; preds = %12
  %22 = load ptr, ptr %5, align 8
  %23 = getelementptr inbounds nuw %struct.PLATFORM_hid_device_, ptr %22, i32 0, i32 0
  %24 = load i32, ptr %23, align 8
  %25 = load ptr, ptr %6, align 8
  %26 = load i64, ptr %7, align 8
  %27 = call i64 @write(i32 noundef %24, ptr noundef %25, i64 noundef %26)
  %28 = trunc i64 %27 to i32
  store i32 %28, ptr %8, align 4
  %29 = load ptr, ptr %5, align 8
  %30 = load i32, ptr %8, align 4
  %31 = icmp eq i32 %30, -1
  br i1 %31, label %32, label %36

32:                                               ; preds = %21
  %33 = call ptr @__errno_location() #13
  %34 = load i32, ptr %33, align 4
  %35 = call ptr @strerror(i32 noundef %34) #10
  br label %37

36:                                               ; preds = %21
  br label %37

37:                                               ; preds = %36, %32
  %38 = phi ptr [ %35, %32 ], [ null, %36 ]
  call void @register_device_error(ptr noundef %29, ptr noundef %38)
  %39 = load i32, ptr %8, align 4
  store i32 %39, ptr %4, align 4
  store i32 1, ptr %9, align 4
  br label %40

40:                                               ; preds = %37, %15
  call void @llvm.lifetime.end.p0(i64 4, ptr %8) #10
  %41 = load i32, ptr %4, align 4
  ret i32 %41
}