; Function Attrs: nounwind uwtable
define hidden noundef i32 @PLATFORM_hid_write(ptr noundef readonly captures(none) %0, ptr noundef readonly captures(address_is_null) %1, i64 noundef %2) #1 {
  %4 = icmp eq ptr %1, null
  %5 = icmp eq i64 %2, 0
  %or.cond = or i1 %4, %5
  br i1 %or.cond, label %6, label %14

6:                                                ; preds = %3
  %7 = tail call ptr @__errno_location() #25
  store i32 22, ptr %7, align 4
  %8 = tail call ptr @strerror(i32 noundef 22) #22
  %9 = getelementptr i8, ptr %0, i64 16
  %.val = load ptr, ptr %9, align 8
  tail call void @free(ptr noundef %.val) #22
  %.not.i.i = icmp eq ptr %8, null
  br i1 %.not.i.i, label %12, label %10

10:                                               ; preds = %6
  %11 = tail call zeroext i1 (ptr, ...) @SDL_SetError_REAL(ptr noundef nonnull @.str.31, ptr noundef nonnull %8) #22
  br label %register_device_error.exit

12:                                               ; preds = %6
  %13 = tail call zeroext i1 @SDL_ClearError_REAL() #22
  br label %register_device_error.exit

14:                                               ; preds = %3
  %15 = load i32, ptr %0, align 8
  %16 = tail call i64 @write(i32 noundef %15, ptr noundef nonnull %1, i64 noundef %2) #22
  %17 = trunc i64 %16 to i32
  %18 = icmp eq i32 %17, -1
  br i1 %18, label %20, label %.thread

.thread:                                          ; preds = %14
  %19 = getelementptr i8, ptr %0, i64 16
  %.val1215 = load ptr, ptr %19, align 8
  tail call void @free(ptr noundef %.val1215) #22
  br label %27

20:                                               ; preds = %14
  %21 = tail call ptr @__errno_location() #25
  %22 = load i32, ptr %21, align 4
  %23 = tail call ptr @strerror(i32 noundef %22) #22
  %24 = getelementptr i8, ptr %0, i64 16
  %.val12 = load ptr, ptr %24, align 8
  tail call void @free(ptr noundef %.val12) #22
  %.not.i.i13 = icmp eq ptr %23, null
  br i1 %.not.i.i13, label %27, label %25

25:                                               ; preds = %20
  %26 = tail call zeroext i1 (ptr, ...) @SDL_SetError_REAL(ptr noundef nonnull @.str.31, ptr noundef nonnull %23) #22
  br label %register_device_error.exit

27:                                               ; preds = %.thread, %20
  %28 = tail call zeroext i1 @SDL_ClearError_REAL() #22
  br label %register_device_error.exit

register_device_error.exit:                       ; preds = %27, %25, %12, %10
  %.0 = phi i32 [ -1, %10 ], [ -1, %12 ], [ -1, %25 ], [ %17, %27 ]
  ret i32 %.0
}